target datalayout = "e-m:e-p270:32:32-p271:32:32-p272:64:64-i64:64-i128:128-f80:128-n8:16:32:64-S128"
target triple = "x86_64-pc-linux-gnu"

%struct.H5C_cache_entry_t = type { ptr, i64, i64, ptr, i8, ptr, i8, i8, i8, i8, i32, i8, i8, i8, i8, i8, i32, ptr, i32, i32, i32, i32, i32, i8, i8, ptr, ptr, ptr, ptr, ptr, ptr, i8, i32, i8, i64, ptr, i64, i64, i32, i8, i32, i32, i8, ptr, ptr, ptr }
%struct.H5EA_hdr_t = type { %struct.H5C_cache_entry_t, %struct.H5EA_create_t, i64, %struct.H5EA_stat_t, %struct.anon.1, i64, i64, i64, ptr, i64, i8, i64, i64, i8, i64, ptr, i64, ptr, i8, ptr, ptr }
%struct.H5EA_create_t = type { ptr, i8, i8, i8, i8, i8, i8 }
%struct.H5EA_stat_t = type { %struct.anon, %struct.anon.0 }
%struct.anon = type { i64, i64, i64 }
%struct.anon.0 = type { i64, i64, i64, i64, i64, i64 }
%struct.anon.1 = type { i64, ptr }
%struct.H5EA_dblock_t = type { %struct.H5C_cache_entry_t, i64, ptr, ptr, i64, i64, i8, ptr, ptr, i64, i64 }

@H5EA_init_g = external global i8, align 1
@H5_libterm_g = external global i8, align 1

; Function Attrs: nounwind uwtable
define internal i32 @H5EA__cache_dblock_image_len(ptr noundef %0, ptr noundef %1) #0 {
  %3 = alloca ptr, align 8
  %4 = alloca ptr, align 8
  %5 = alloca ptr, align 8
  store ptr %0, ptr %3, align 8, !tbaa !3
  store ptr %1, ptr %4, align 8, !tbaa !7
  call void @llvm.lifetime.start.p0(i64 8, ptr %5) #8
  %6 = load ptr, ptr %3, align 8, !tbaa !3
  store ptr %6, ptr %5, align 8, !tbaa !157
  %7 = load i8, ptr @H5EA_init_g, align 1, !tbaa !11, !range !13, !noundef !14
  %8 = trunc i8 %7 to i1
  br i1 %8, label %13, label %9

9:                                                ; preds = %2
  %10 = load i8, ptr @H5_libterm_g, align 1, !tbaa !11, !range !13, !noundef !14
  %11 = trunc i8 %10 to i1
  %12 = xor i1 %11, true
  br label %13

13:                                               ; preds = %9, %2
  %14 = phi i1 [ true, %2 ], [ %12, %9 ]
  %15 = xor i1 %14, true
  %16 = xor i1 %15, true
  %17 = zext i1 %16 to i32
  %18 = sext i32 %17 to i64
  %19 = call i64 @llvm.expect.i64(i64 %18, i64 1)
  %20 = icmp ne i64 %19, 0
  br i1 %20, label %21, label %47

21:                                               ; preds = %13
  %22 = load ptr, ptr %5, align 8, !tbaa !157
  %23 = getelementptr inbounds nuw %struct.H5EA_dblock_t, ptr %22, i32 0, i32 10
  %24 = load i64, ptr %23, align 8, !tbaa !156
  %25 = icmp ne i64 %24, 0
  br i1 %25, label %31, label %26

26:                                               ; preds = %21
  %27 = load ptr, ptr %5, align 8, !tbaa !157
  %28 = getelementptr inbounds nuw %struct.H5EA_dblock_t, ptr %27, i32 0, i32 5
  %29 = load i64, ptr %28, align 8, !tbaa !165
  %30 = load ptr, ptr %4, align 8, !tbaa !7
  store i64 %29, ptr %30, align 8, !tbaa !19
  br label %46

31:                                               ; preds = %21
  %32 = load ptr, ptr %5, align 8, !tbaa !157
  %33 = getelementptr inbounds nuw %struct.H5EA_dblock_t, ptr %32, i32 0, i32 3
  %34 = load ptr, ptr %33, align 8, !tbaa !152
  %35 = getelementptr inbounds nuw %struct.H5EA_hdr_t, ptr %34, i32 0, i32 11
  %36 = load i64, ptr %35, align 8, !tbaa !77
  %37 = add i64 10, %36
  %38 = load ptr, ptr %5, align 8, !tbaa !157
  %39 = getelementptr inbounds nuw %struct.H5EA_dblock_t, ptr %38, i32 0, i32 3
  %40 = load ptr, ptr %39, align 8, !tbaa !152
  %41 = getelementptr inbounds nuw %struct.H5EA_hdr_t, ptr %40, i32 0, i32 13
  %42 = load i8, ptr %41, align 8, !tbaa !131
  %43 = zext i8 %42 to i64
  %44 = add i64 %37, %43
  %45 = load ptr, ptr %4, align 8, !tbaa !7
  store i64 %44, ptr %45, align 8, !tbaa !19
  br label %46

46:                                               ; preds = %31, %26
  br label %47

47:                                               ; preds = %46, %13
  call void @llvm.lifetime.end.p0(i64 8, ptr %5) #8
  ret i32 0
}